#include <math.h>
#include <stdio.h>
#include <stdlib.h>
#include <string.h>

int main()
{
	int n;
	int num[1000];
	int *p;
	int i,m;
	scanf("%d%d",&n,&m);
	for(i=0;i<n;i++)
	{
		scanf("%d",&num[i]);
	}
	p=num;
	for(i=0;i<m;i++)
	{for(p=num+n;p>=num;p--)
	{
		
		*(p+1)=*p;
	}
	p=num;
	*p=*(num+n);}
	for(i=0;i<n-1;i++)
	printf("%d ",num[i]);
	printf("%d",num[i]);

	return 0;
}