; ModuleID = '52/442.c'
source_filename = "52/442.c"
target datalayout = "e-m:e-p270:32:32-p271:32:32-p272:64:64-i64:64-f80:128-n8:16:32:64-S128"
target triple = "x86_64-pc-linux-gnu"

@.str = private unnamed_addr constant [5 x i8] c"%d%d\00", align 1
@.str.1 = private unnamed_addr constant [3 x i8] c"%d\00", align 1
@.str.2 = private unnamed_addr constant [4 x i8] c"%d \00", align 1

; Function Attrs: noinline nounwind uwtable
define dso_local i32 @main() #0 {
  %1 = alloca i32, align 4
  %2 = alloca i32, align 4
  %3 = alloca [1000 x i32], align 16
  %4 = alloca i32*, align 8
  %5 = alloca i32, align 4
  %6 = alloca i32, align 4
  store i32 0, i32* %1, align 4
  %7 = call i32 (i8*, ...) @__isoc99_scanf(i8* getelementptr inbounds ([5 x i8], [5 x i8]* @.str, i64 0, i64 0), i32* %2, i32* %6)
  store i32 0, i32* %5, align 4
  br label %8

8:                                                ; preds = %17, %0
  %9 = load i32, i32* %5, align 4
  %10 = load i32, i32* %2, align 4
  %11 = icmp slt i32 %9, %10
  br i1 %11, label %12, label %20

12:                                               ; preds = %8
  %13 = load i32, i32* %5, align 4
  %14 = sext i32 %13 to i64
  %15 = getelementptr inbounds [1000 x i32], [1000 x i32]* %3, i64 0, i64 %14
  %16 = call i32 (i8*, ...) @__isoc99_scanf(i8* getelementptr inbounds ([3 x i8], [3 x i8]* @.str.1, i64 0, i64 0), i32* %15)
  br label %17

17:                                               ; preds = %12
  %18 = load i32, i32* %5, align 4
  %19 = add nsw i32 %18, 1
  store i32 %19, i32* %5, align 4
  br label %8

20:                                               ; preds = %8
  %21 = getelementptr inbounds [1000 x i32], [1000 x i32]* %3, i64 0, i64 0
  store i32* %21, i32** %4, align 8
  store i32 0, i32* %5, align 4
  br label %22

22:                                               ; preds = %51, %20
  %23 = load i32, i32* %5, align 4
  %24 = load i32, i32* %6, align 4
  %25 = icmp slt i32 %23, %24
  br i1 %25, label %26, label %54

26:                                               ; preds = %22
  %27 = getelementptr inbounds [1000 x i32], [1000 x i32]* %3, i64 0, i64 0
  %28 = load i32, i32* %2, align 4
  %29 = sext i32 %28 to i64
  %30 = getelementptr inbounds i32, i32* %27, i64 %29
  store i32* %30, i32** %4, align 8
  br label %31

31:                                               ; preds = %40, %26
  %32 = load i32*, i32** %4, align 8
  %33 = getelementptr inbounds [1000 x i32], [1000 x i32]* %3, i64 0, i64 0
  %34 = icmp uge i32* %32, %33
  br i1 %34, label %35, label %43

35:                                               ; preds = %31
  %36 = load i32*, i32** %4, align 8
  %37 = load i32, i32* %36, align 4
  %38 = load i32*, i32** %4, align 8
  %39 = getelementptr inbounds i32, i32* %38, i64 1
  store i32 %37, i32* %39, align 4
  br label %40

40:                                               ; preds = %35
  %41 = load i32*, i32** %4, align 8
  %42 = getelementptr inbounds i32, i32* %41, i32 -1
  store i32* %42, i32** %4, align 8
  br label %31

43:                                               ; preds = %31
  %44 = getelementptr inbounds [1000 x i32], [1000 x i32]* %3, i64 0, i64 0
  store i32* %44, i32** %4, align 8
  %45 = getelementptr inbounds [1000 x i32], [1000 x i32]* %3, i64 0, i64 0
  %46 = load i32, i32* %2, align 4
  %47 = sext i32 %46 to i64
  %48 = getelementptr inbounds i32, i32* %45, i64 %47
  %49 = load i32, i32* %48, align 4
  %50 = load i32*, i32** %4, align 8
  store i32 %49, i32* %50, align 4
  br label %51

51:                                               ; preds = %43
  %52 = load i32, i32* %5, align 4
  %53 = add nsw i32 %52, 1
  store i32 %53, i32* %5, align 4
  br label %22

54:                                               ; preds = %22
  store i32 0, i32* %5, align 4
  br label %55

55:                                               ; preds = %66, %54
  %56 = load i32, i32* %5, align 4
  %57 = load i32, i32* %2, align 4
  %58 = sub nsw i32 %57, 1
  %59 = icmp slt i32 %56, %58
  br i1 %59, label %60, label %69

60:                                               ; preds = %55
  %61 = load i32, i32* %5, align 4
  %62 = sext i32 %61 to i64
  %63 = getelementptr inbounds [1000 x i32], [1000 x i32]* %3, i64 0, i64 %62
  %64 = load i32, i32* %63, align 4
  %65 = call i32 (i8*, ...) @printf(i8* getelementptr inbounds ([4 x i8], [4 x i8]* @.str.2, i64 0, i64 0), i32 %64)
  br label %66

66:                                               ; preds = %60
  %67 = load i32, i32* %5, align 4
  %68 = add nsw i32 %67, 1
  store i32 %68, i32* %5, align 4
  br label %55

69:                                               ; preds = %55
  %70 = load i32, i32* %5, align 4
  %71 = sext i32 %70 to i64
  %72 = getelementptr inbounds [1000 x i32], [1000 x i32]* %3, i64 0, i64 %71
  %73 = load i32, i32* %72, align 4
  %74 = call i32 (i8*, ...) @printf(i8* getelementptr inbounds ([3 x i8], [3 x i8]* @.str.1, i64 0, i64 0), i32 %73)
  ret i32 0
}

declare dso_local i32 @__isoc99_scanf(i8*, ...) #1

declare dso_local i32 @printf(i8*, ...) #1


!llvm.module.flags = !{!0}
!llvm.ident = !{!1}

!0 = !{i32 1, !"wchar_size", i32 4}
!1 = !{!"clang version 10.0.0-4ubuntu1 "}
